(lp0
S'poi'
p1
acnumpy.core.multiarray
scalar
p2
(cnumpy
dtype
p3
(S'S6'
p4
I0
I1
tp5
Rp6
(I3
S'|'
p7
NNNI6
I1
I0
tp8
bS'salary'
p9
tp10
Rp11
ag2
(g3
(S'S14'
p12
I0
I1
tp13
Rp14
(I3
S'|'
p15
NNNI14
I1
I0
tp16
bS'total_payments'
p17
tp18
Rp19
ag2
(g3
(S'S23'
p20
I0
I1
tp21
Rp22
(I3
S'|'
p23
NNNI23
I1
I0
tp24
bS'exercised_stock_options'
p25
tp26
Rp27
ag2
(g3
(S'S5'
p28
I0
I1
tp29
Rp30
(I3
S'|'
p31
NNNI5
I1
I0
tp32
bS'bonus'
p33
tp34
Rp35
ag2
(g3
(S'S16'
p36
I0
I1
tp37
Rp38
(I3
S'|'
p39
NNNI16
I1
I0
tp40
bS'restricted_stock'
p41
tp42
Rp43
ag2
(g3
(S'S23'
p44
I0
I1
tp45
Rp46
(I3
S'|'
p47
NNNI23
I1
I0
tp48
bS'shared_receipt_with_poi'
p49
tp50
Rp51
ag2
(g3
(S'S17'
p52
I0
I1
tp53
Rp54
(I3
S'|'
p55
NNNI17
I1
I0
tp56
bS'total_stock_value'
p57
tp58
Rp59
ag2
(g3
(S'S8'
p60
I0
I1
tp61
Rp62
(I3
S'|'
p63
NNNI8
I1
I0
tp64
bS'expenses'
p65
tp66
Rp67
ag2
(g3
(S'S5'
p68
I0
I1
tp69
Rp70
(I3
S'|'
p71
NNNI5
I1
I0
tp72
bS'other'
p73
tp74
Rp75
ag2
(g3
(S'S19'
p76
I0
I1
tp77
Rp78
(I3
S'|'
p79
NNNI19
I1
I0
tp80
bS'long_term_incentive'
p81
tp82
Rp83
ag2
(g3
(S'S23'
p84
I0
I1
tp85
Rp86
(I3
S'|'
p87
NNNI23
I1
I0
tp88
bS'from_poi_to_this_person'
p89
tp90
Rp91
a.