(lp0
S'poi'
p1
acnumpy.core.multiarray
scalar
p2
(cnumpy
dtype
p3
(S'S6'
p4
I0
I1
tp5
Rp6
(I3
S'|'
p7
NNNI6
I1
I0
tp8
bS'salary'
p9
tp10
Rp11
ag2
(g3
(S'S23'
p12
I0
I1
tp13
Rp14
(I3
S'|'
p15
NNNI23
I1
I0
tp16
bS'exercised_stock_options'
p17
tp18
Rp19
ag2
(g3
(S'S5'
p20
I0
I1
tp21
Rp22
(I3
S'|'
p23
NNNI5
I1
I0
tp24
bS'bonus'
p25
tp26
Rp27
ag2
(g3
(S'S23'
p28
I0
I1
tp29
Rp30
(I3
S'|'
p31
NNNI23
I1
I0
tp32
bS'shared_receipt_with_poi'
p33
tp34
Rp35
ag2
(g3
(S'S17'
p36
I0
I1
tp37
Rp38
(I3
S'|'
p39
NNNI17
I1
I0
tp40
bS'total_stock_value'
p41
tp42
Rp43
ag2
(g3
(S'S8'
p44
I0
I1
tp45
Rp46
(I3
S'|'
p47
NNNI8
I1
I0
tp48
bS'expenses'
p49
tp50
Rp51
ag2
(g3
(S'S5'
p52
I0
I1
tp53
Rp54
(I3
S'|'
p55
NNNI5
I1
I0
tp56
bS'other'
p57
tp58
Rp59
ag2
(g3
(S'S15'
p60
I0
I1
tp61
Rp62
(I3
S'|'
p63
NNNI15
I1
I0
tp64
bS'deferred_income'
p65
tp66
Rp67
ag2
(g3
(S'S23'
p68
I0
I1
tp69
Rp70
(I3
S'|'
p71
NNNI23
I1
I0
tp72
bS'from_poi_to_this_person'
p73
tp74
Rp75
a.